target datalayout = "e-m:e-p270:32:32-p271:32:32-p272:64:64-i64:64-i128:128-f80:128-n8:16:32:64-S128"
target triple = "x86_64-pc-linux-gnu"

%"class.icu_77::UnicodeString" = type { %"class.icu_77::Replaceable", %"union.icu_77::UnicodeString::StackBufferOrFields" }
%"class.icu_77::Replaceable" = type { %"class.icu_77::UObject" }
%"class.icu_77::UObject" = type { ptr }
%"union.icu_77::UnicodeString::StackBufferOrFields" = type { %struct.anon.0, [32 x i8] }
%struct.anon.0 = type { i16, i32, i32, ptr }
%"class.icu_77::RuleBasedNumberFormat" = type { %"class.icu_77::NumberFormat.base", ptr, ptr, i32, ptr, %"class.icu_77::Locale", ptr, ptr, ptr, ptr, i32, i8, ptr, ptr, %"class.icu_77::UnicodeString", i8, i8, i8, ptr }
%"class.icu_77::NumberFormat.base" = type <{ %"class.icu_77::Format", i8, [3 x i8], i32, i32, i32, i32, i8, i8, [4 x i16], [2 x i8], i32 }>
%"class.icu_77::Format" = type { %"class.icu_77::UObject", ptr, ptr }
%"class.icu_77::Locale" = type <{ %"class.icu_77::UObject", [12 x i8], [6 x i8], [4 x i8], [2 x i8], i32, [4 x i8], ptr, [157 x i8], [3 x i8], ptr, i8, [7 x i8] }>
%struct.anon = type { i16, [27 x i16] }

@_ZTVN6icu_777UObjectE = available_externally unnamed_addr constant { [5 x ptr] } { [5 x ptr] [ptr null, ptr @_ZTIN6icu_777UObjectE, ptr @_ZN6icu_777UObjectD1Ev, ptr @_ZN6icu_777UObjectD0Ev, ptr @_ZNK6icu_777UObject17getDynamicClassIDEv] }, align 8

; Function Attrs: inlinehint mustprogress nounwind uwtable
define linkonce_odr void @_ZN6icu_777UObjectC2Ev(ptr noundef nonnull align 8 dereferenceable(8) %0) unnamed_addr #4 comdat align 2 {
  %2 = alloca ptr, align 8
  store ptr %0, ptr %2, align 8, !tbaa !225
  %3 = load ptr, ptr %2, align 8
  store ptr getelementptr inbounds inrange(-16, 24) ({ [5 x ptr] }, ptr @_ZTVN6icu_777UObjectE, i32 0, i32 0, i32 2), ptr %3, align 8, !tbaa !10
  ret void
}

; Function Attrs: inlinehint mustprogress nounwind uwtable
define linkonce_odr void @_ZN6icu_7711ReplaceableC2Ev(ptr noundef nonnull align 8 dereferenceable(8) %0) unnamed_addr #4 comdat align 2 {
  %2 = alloca ptr, align 8
  store ptr %0, ptr %2, align 8, !tbaa !223
  %3 = load ptr, ptr %2, align 8
  call void @_ZN6icu_777UObjectC2Ev(ptr noundef nonnull align 8 dereferenceable(8) %3) #14
  store ptr getelementptr inbounds inrange(-16, 88) ({ [13 x ptr] }, ptr @_ZTVN6icu_7711ReplaceableE, i32 0, i32 0, i32 2), ptr %3, align 8, !tbaa !10
  ret void
}

; Function Attrs: inlinehint mustprogress uwtable
define linkonce_odr void @_ZN6icu_7713UnicodeStringC2Ev(ptr noundef nonnull align 8 dereferenceable(64) %0) unnamed_addr #6 comdat align 2 {
  %2 = alloca ptr, align 8
  store ptr %0, ptr %2, align 8, !tbaa !76
  %3 = load ptr, ptr %2, align 8
  call void @_ZN6icu_7711ReplaceableC2Ev(ptr noundef nonnull align 8 dereferenceable(8) %3)
  store ptr getelementptr inbounds inrange(-16, 88) ({ [13 x ptr] }, ptr @_ZTVN6icu_7713UnicodeStringE, i32 0, i32 0, i32 2), ptr %3, align 8, !tbaa !10
  %4 = getelementptr inbounds nuw %"class.icu_77::UnicodeString", ptr %3, i32 0, i32 1
  %5 = getelementptr inbounds nuw %struct.anon, ptr %4, i32 0, i32 0
  store i16 2, ptr %5, align 8, !tbaa !39
  ret void
}

; Function Attrs: mustprogress uwtable
define void @_ZN6icu_7721RuleBasedNumberFormatC2ERKS0_(ptr noundef nonnull align 8 dereferenceable(456) %0, ptr noundef nonnull align 8 dereferenceable(456) %1) unnamed_addr #2 align 2 personality ptr @__gxx_personality_v0 {
  %3 = alloca ptr, align 8
  %4 = alloca ptr, align 8
  %5 = alloca ptr, align 8
  %6 = alloca i32, align 4
  store ptr %0, ptr %3, align 8, !tbaa !3
  store ptr %1, ptr %4, align 8, !tbaa !3
  %7 = load ptr, ptr %3, align 8
  %8 = load ptr, ptr %4, align 8, !tbaa !3
  call void @_ZN6icu_7712NumberFormatC2ERKS0_(ptr noundef nonnull align 8 dereferenceable(60) %7, ptr noundef nonnull align 8 dereferenceable(60) %8)
  store ptr getelementptr inbounds inrange(-16, 408) ({ [53 x ptr] }, ptr @_ZTVN6icu_7721RuleBasedNumberFormatE, i32 0, i32 0, i32 2), ptr %7, align 8, !tbaa !10
  %9 = getelementptr inbounds nuw %"class.icu_77::RuleBasedNumberFormat", ptr %7, i32 0, i32 1
  store ptr null, ptr %9, align 8, !tbaa !87
  %10 = getelementptr inbounds nuw %"class.icu_77::RuleBasedNumberFormat", ptr %7, i32 0, i32 2
  store ptr null, ptr %10, align 8, !tbaa !104
  %11 = getelementptr inbounds nuw %"class.icu_77::RuleBasedNumberFormat", ptr %7, i32 0, i32 3
  store i32 0, ptr %11, align 8, !tbaa !105
  %12 = getelementptr inbounds nuw %"class.icu_77::RuleBasedNumberFormat", ptr %7, i32 0, i32 4
  store ptr null, ptr %12, align 8, !tbaa !106
  %13 = getelementptr inbounds nuw %"class.icu_77::RuleBasedNumberFormat", ptr %7, i32 0, i32 5
  %14 = load ptr, ptr %4, align 8, !tbaa !3
  %15 = getelementptr inbounds nuw %"class.icu_77::RuleBasedNumberFormat", ptr %14, i32 0, i32 5
  invoke void @_ZN6icu_776LocaleC1ERKS0_(ptr noundef nonnull align 8 dereferenceable(217) %13, ptr noundef nonnull align 8 dereferenceable(217) %15)
          to label %16 unwind label %34

16:                                               ; preds = %2
  %17 = getelementptr inbounds nuw %"class.icu_77::RuleBasedNumberFormat", ptr %7, i32 0, i32 6
  store ptr null, ptr %17, align 8, !tbaa !107
  %18 = getelementptr inbounds nuw %"class.icu_77::RuleBasedNumberFormat", ptr %7, i32 0, i32 7
  store ptr null, ptr %18, align 8, !tbaa !108
  %19 = getelementptr inbounds nuw %"class.icu_77::RuleBasedNumberFormat", ptr %7, i32 0, i32 8
  store ptr null, ptr %19, align 8, !tbaa !109
  %20 = getelementptr inbounds nuw %"class.icu_77::RuleBasedNumberFormat", ptr %7, i32 0, i32 9
  store ptr null, ptr %20, align 8, !tbaa !110
  %21 = getelementptr inbounds nuw %"class.icu_77::RuleBasedNumberFormat", ptr %7, i32 0, i32 10
  store i32 7, ptr %21, align 8, !tbaa !111
  %22 = getelementptr inbounds nuw %"class.icu_77::RuleBasedNumberFormat", ptr %7, i32 0, i32 11
  store i8 0, ptr %22, align 4, !tbaa !112
  %23 = getelementptr inbounds nuw %"class.icu_77::RuleBasedNumberFormat", ptr %7, i32 0, i32 12
  store ptr null, ptr %23, align 8, !tbaa !113
  %24 = getelementptr inbounds nuw %"class.icu_77::RuleBasedNumberFormat", ptr %7, i32 0, i32 13
  store ptr null, ptr %24, align 8, !tbaa !114
  %25 = getelementptr inbounds nuw %"class.icu_77::RuleBasedNumberFormat", ptr %7, i32 0, i32 14
  invoke void @_ZN6icu_7713UnicodeStringC2Ev(ptr noundef nonnull align 8 dereferenceable(64) %25)
          to label %26 unwind label %38

26:                                               ; preds = %16
  %27 = getelementptr inbounds nuw %"class.icu_77::RuleBasedNumberFormat", ptr %7, i32 0, i32 15
  store i8 0, ptr %27, align 8, !tbaa !115
  %28 = getelementptr inbounds nuw %"class.icu_77::RuleBasedNumberFormat", ptr %7, i32 0, i32 16
  store i8 0, ptr %28, align 1, !tbaa !116
  %29 = getelementptr inbounds nuw %"class.icu_77::RuleBasedNumberFormat", ptr %7, i32 0, i32 17
  store i8 0, ptr %29, align 2, !tbaa !117
  %30 = getelementptr inbounds nuw %"class.icu_77::RuleBasedNumberFormat", ptr %7, i32 0, i32 18
  store ptr null, ptr %30, align 8, !tbaa !118
  %31 = load ptr, ptr %4, align 8, !tbaa !3
  %32 = invoke noundef nonnull align 8 dereferenceable(456) ptr @_ZN6icu_7721RuleBasedNumberFormataSERKS0_(ptr noundef nonnull align 8 dereferenceable(456) %7, ptr noundef nonnull align 8 dereferenceable(456) %31)
          to label %33 unwind label %42

33:                                               ; preds = %26
  ret void

34:                                               ; preds = %2
  %35 = landingpad { ptr, i32 }
          cleanup
  %36 = extractvalue { ptr, i32 } %35, 0
  store ptr %36, ptr %5, align 8
  %37 = extractvalue { ptr, i32 } %35, 1
  store i32 %37, ptr %6, align 4
  br label %47

38:                                               ; preds = %16
  %39 = landingpad { ptr, i32 }
          cleanup
  %40 = extractvalue { ptr, i32 } %39, 0
  store ptr %40, ptr %5, align 8
  %41 = extractvalue { ptr, i32 } %39, 1
  store i32 %41, ptr %6, align 4
  br label %46

42:                                               ; preds = %26
  %43 = landingpad { ptr, i32 }
          cleanup
  %44 = extractvalue { ptr, i32 } %43, 0
  store ptr %44, ptr %5, align 8
  %45 = extractvalue { ptr, i32 } %43, 1
  store i32 %45, ptr %6, align 4
  call void @_ZN6icu_7713UnicodeStringD1Ev(ptr noundef nonnull align 8 dereferenceable(64) %25) #14
  br label %46

46:                                               ; preds = %42, %38
  call void @_ZN6icu_776LocaleD1Ev(ptr noundef nonnull align 8 dereferenceable(217) %13) #14
  br label %47

47:                                               ; preds = %46, %34
  call void @_ZN6icu_7712NumberFormatD2Ev(ptr noundef nonnull align 8 dereferenceable(60) %7) #14
  br label %48

48:                                               ; preds = %47
  %49 = load ptr, ptr %5, align 8
  %50 = load i32, ptr %6, align 4
  %51 = insertvalue { ptr, i32 } poison, ptr %49, 0
  %52 = insertvalue { ptr, i32 } %51, i32 %50, 1
  resume { ptr, i32 } %52
}