; Function Attrs: mustprogress uwtable
define void @_ZN6icu_7721RuleBasedNumberFormatC2ERKS0_(ptr noundef nonnull align 8 dereferenceable(456) %0, ptr noundef nonnull align 8 dereferenceable(456) %1) unnamed_addr #3 align 2 personality ptr @__gxx_personality_v0 {
  tail call void @_ZN6icu_7712NumberFormatC2ERKS0_(ptr noundef nonnull align 8 dereferenceable(60) %0, ptr noundef nonnull align 8 dereferenceable(60) %1)
  store ptr getelementptr inbounds nuw inrange(-16, 408) (i8, ptr @_ZTVN6icu_7721RuleBasedNumberFormatE, i64 16), ptr %0, align 8, !tbaa !3
  %3 = getelementptr inbounds nuw i8, ptr %0, i64 64
  %4 = getelementptr inbounds nuw i8, ptr %0, i64 88
  store ptr null, ptr %4, align 8, !tbaa !64
  %5 = getelementptr inbounds nuw i8, ptr %0, i64 96
  %6 = getelementptr inbounds nuw i8, ptr %1, i64 96
  tail call void @llvm.memset.p0.i64(ptr noundef nonnull align 8 dereferenceable(20) %3, i8 0, i64 20, i1 false)
  invoke void @_ZN6icu_776LocaleC1ERKS0_(ptr noundef nonnull align 8 dereferenceable(217) %5, ptr noundef nonnull align 8 dereferenceable(217) %6)
          to label %7 unwind label %20

7:                                                ; preds = %2
  %8 = getelementptr inbounds nuw i8, ptr %0, i64 320
  %9 = getelementptr inbounds nuw i8, ptr %0, i64 352
  tail call void @llvm.memset.p0.i64(ptr noundef nonnull align 8 dereferenceable(32) %8, i8 0, i64 32, i1 false)
  store i32 7, ptr %9, align 8, !tbaa !84
  %10 = getelementptr inbounds nuw i8, ptr %0, i64 356
  store i8 0, ptr %10, align 4, !tbaa !85
  %11 = getelementptr inbounds nuw i8, ptr %0, i64 360
  %12 = getelementptr inbounds nuw i8, ptr %0, i64 376
  tail call void @llvm.memset.p0.i64(ptr noundef nonnull align 8 dereferenceable(16) %11, i8 0, i64 16, i1 false)
  store ptr getelementptr inbounds nuw inrange(-16, 88) (i8, ptr @_ZTVN6icu_7713UnicodeStringE, i64 16), ptr %12, align 8, !tbaa !3
  %13 = getelementptr inbounds nuw i8, ptr %0, i64 384
  store i16 2, ptr %13, align 8, !tbaa !55
  %14 = getelementptr inbounds nuw i8, ptr %0, i64 440
  store i8 0, ptr %14, align 8, !tbaa !86
  %15 = getelementptr inbounds nuw i8, ptr %0, i64 441
  store i8 0, ptr %15, align 1, !tbaa !87
  %16 = getelementptr inbounds nuw i8, ptr %0, i64 442
  store i8 0, ptr %16, align 2, !tbaa !88
  %17 = getelementptr inbounds nuw i8, ptr %0, i64 448
  store ptr null, ptr %17, align 8, !tbaa !89
  %18 = invoke noundef nonnull align 8 dereferenceable(456) ptr @_ZN6icu_7721RuleBasedNumberFormataSERKS0_(ptr noundef nonnull align 8 dereferenceable(456) %0, ptr noundef nonnull align 8 dereferenceable(456) %1)
          to label %19 unwind label %22

19:                                               ; preds = %7
  ret void

20:                                               ; preds = %2
  %21 = landingpad { ptr, i32 }
          cleanup
  br label %24

22:                                               ; preds = %7
  %23 = landingpad { ptr, i32 }
          cleanup
  tail call void @_ZN6icu_7713UnicodeStringD1Ev(ptr noundef nonnull align 8 dereferenceable(64) %12) #21
  tail call void @_ZN6icu_776LocaleD1Ev(ptr noundef nonnull align 8 dereferenceable(217) %5) #21
  br label %24

24:                                               ; preds = %22, %20
  %.pn.pn = phi { ptr, i32 } [ %23, %22 ], [ %21, %20 ]
  tail call void @_ZN6icu_7712NumberFormatD2Ev(ptr noundef nonnull align 8 dereferenceable(60) %0) #21
  resume { ptr, i32 } %.pn.pn
}